target datalayout = "e-m:e-p270:32:32-p271:32:32-p272:64:64-i64:64-i128:128-f80:128-n8:16:32:64-S128"
target triple = "x86_64-pc-linux-gnu"

%struct.AVIOContext = type { ptr, ptr, i32, ptr, ptr, ptr, ptr, ptr, ptr, i64, i32, i32, i32, i32, i32, i64, ptr, ptr, ptr, ptr, i32, i32, ptr, ptr, ptr, i32, ptr, i64, i64 }
%struct.FFIOContext = type { %struct.AVIOContext, ptr, i32, i32, i64, i64, i64, i64, i32, i32, i32, i64 }

@.str.15 = private unnamed_addr constant [55 x i8] c"Statistics: %ld bytes written, %d seeks, %d writeouts\0A\00", align 1
@.str.16 = private unnamed_addr constant [38 x i8] c"Statistics: %ld bytes read, %d seeks\0A\00", align 1

; Function Attrs: nounwind uwtable
define i32 @ffurl_close(ptr noundef %0) #1 {
  %2 = alloca ptr, align 8
  store ptr %0, ptr %2, align 8, !tbaa !22
  %3 = call i32 @ffurl_closep(ptr noundef %2)
  ret i32 %3
}

; Function Attrs: alwaysinline nounwind uwtable
define internal ptr @ffiocontext(ptr noundef %0) #6 {
  %2 = alloca ptr, align 8
  store ptr %0, ptr %2, align 8, !tbaa !8
  %3 = load ptr, ptr %2, align 8, !tbaa !8
  ret ptr %3
}

; Function Attrs: nounwind uwtable
define i32 @avio_close(ptr noundef %0) #1 {
  %2 = alloca i32, align 4
  %3 = alloca ptr, align 8
  %4 = alloca ptr, align 8
  %5 = alloca ptr, align 8
  %6 = alloca i32, align 4
  %7 = alloca i32, align 4
  %8 = alloca i32, align 4
  store ptr %0, ptr %3, align 8, !tbaa !8
  call void @llvm.lifetime.start.p0(i64 8, ptr %4) #10
  %9 = load ptr, ptr %3, align 8, !tbaa !8
  %10 = call ptr @ffiocontext(ptr noundef %9)
  store ptr %10, ptr %4, align 8, !tbaa !91
  call void @llvm.lifetime.start.p0(i64 8, ptr %5) #10
  call void @llvm.lifetime.start.p0(i64 4, ptr %6) #10
  call void @llvm.lifetime.start.p0(i64 4, ptr %7) #10
  %11 = load ptr, ptr %3, align 8, !tbaa !8
  %12 = icmp ne ptr %11, null
  br i1 %12, label %14, label %13

13:                                               ; preds = %1
  store i32 0, ptr %2, align 4
  store i32 1, ptr %8, align 4
  br label %59

14:                                               ; preds = %1
  %15 = load ptr, ptr %3, align 8, !tbaa !8
  call void @avio_flush(ptr noundef %15)
  %16 = load ptr, ptr %3, align 8, !tbaa !8
  %17 = getelementptr inbounds nuw %struct.AVIOContext, ptr %16, i32 0, i32 5
  %18 = load ptr, ptr %17, align 8, !tbaa !10
  store ptr %18, ptr %5, align 8, !tbaa !22
  %19 = load ptr, ptr %3, align 8, !tbaa !8
  %20 = getelementptr inbounds nuw %struct.AVIOContext, ptr %19, i32 0, i32 5
  store ptr null, ptr %20, align 8, !tbaa !10
  %21 = load ptr, ptr %3, align 8, !tbaa !8
  %22 = getelementptr inbounds nuw %struct.AVIOContext, ptr %21, i32 0, i32 1
  call void @av_freep(ptr noundef %22)
  %23 = load ptr, ptr %3, align 8, !tbaa !8
  %24 = getelementptr inbounds nuw %struct.AVIOContext, ptr %23, i32 0, i32 12
  %25 = load i32, ptr %24, align 8, !tbaa !93
  %26 = icmp ne i32 %25, 0
  br i1 %26, label %27, label %38

27:                                               ; preds = %14
  %28 = load ptr, ptr %3, align 8, !tbaa !8
  %29 = load ptr, ptr %4, align 8, !tbaa !91
  %30 = getelementptr inbounds nuw %struct.FFIOContext, ptr %29, i32 0, i32 7
  %31 = load i64, ptr %30, align 8, !tbaa !94
  %32 = load ptr, ptr %4, align 8, !tbaa !91
  %33 = getelementptr inbounds nuw %struct.FFIOContext, ptr %32, i32 0, i32 8
  %34 = load i32, ptr %33, align 8, !tbaa !95
  %35 = load ptr, ptr %4, align 8, !tbaa !91
  %36 = getelementptr inbounds nuw %struct.FFIOContext, ptr %35, i32 0, i32 9
  %37 = load i32, ptr %36, align 4, !tbaa !96
  call void (ptr, i32, ptr, ...) @av_log(ptr noundef %28, i32 noundef 40, ptr noundef @.str.15, i64 noundef %31, i32 noundef %34, i32 noundef %37)
  br label %46

38:                                               ; preds = %14
  %39 = load ptr, ptr %3, align 8, !tbaa !8
  %40 = load ptr, ptr %4, align 8, !tbaa !91
  %41 = getelementptr inbounds nuw %struct.FFIOContext, ptr %40, i32 0, i32 6
  %42 = load i64, ptr %41, align 8, !tbaa !97
  %43 = load ptr, ptr %4, align 8, !tbaa !91
  %44 = getelementptr inbounds nuw %struct.FFIOContext, ptr %43, i32 0, i32 8
  %45 = load i32, ptr %44, align 8, !tbaa !95
  call void (ptr, i32, ptr, ...) @av_log(ptr noundef %39, i32 noundef 40, ptr noundef @.str.16, i64 noundef %42, i32 noundef %45)
  br label %46

46:                                               ; preds = %38, %27
  %47 = load ptr, ptr %3, align 8, !tbaa !8
  call void @av_opt_free(ptr noundef %47)
  %48 = load ptr, ptr %3, align 8, !tbaa !8
  %49 = getelementptr inbounds nuw %struct.AVIOContext, ptr %48, i32 0, i32 11
  %50 = load i32, ptr %49, align 4, !tbaa !98
  store i32 %50, ptr %7, align 4, !tbaa !21
  call void @avio_context_free(ptr noundef %3)
  %51 = load ptr, ptr %5, align 8, !tbaa !22
  %52 = call i32 @ffurl_close(ptr noundef %51)
  store i32 %52, ptr %6, align 4, !tbaa !21
  %53 = load i32, ptr %6, align 4, !tbaa !21
  %54 = icmp slt i32 %53, 0
  br i1 %54, label %55, label %57

55:                                               ; preds = %46
  %56 = load i32, ptr %6, align 4, !tbaa !21
  store i32 %56, ptr %2, align 4
  store i32 1, ptr %8, align 4
  br label %59

57:                                               ; preds = %46
  %58 = load i32, ptr %7, align 4, !tbaa !21
  store i32 %58, ptr %2, align 4
  store i32 1, ptr %8, align 4
  br label %59

59:                                               ; preds = %57, %55, %13
  call void @llvm.lifetime.end.p0(i64 4, ptr %7) #10
  call void @llvm.lifetime.end.p0(i64 4, ptr %6) #10
  call void @llvm.lifetime.end.p0(i64 8, ptr %5) #10
  call void @llvm.lifetime.end.p0(i64 8, ptr %4) #10
  %60 = load i32, ptr %2, align 4
  ret i32 %60
}