; Function Attrs: nounwind uwtable
define i32 @avio_close(ptr noundef %0) local_unnamed_addr #3 {
  %2 = alloca ptr, align 8
  %3 = alloca ptr, align 8
  store ptr %0, ptr %3, align 8, !tbaa !46
  %.not = icmp eq ptr %0, null
  br i1 %.not, label %25, label %4

4:                                                ; preds = %1
  tail call void @avio_flush(ptr noundef nonnull %0) #12
  %5 = getelementptr inbounds nuw i8, ptr %0, i64 40
  %6 = load ptr, ptr %5, align 8, !tbaa !4
  store ptr null, ptr %5, align 8, !tbaa !4
  %7 = getelementptr inbounds nuw i8, ptr %0, i64 8
  tail call void @av_freep(ptr noundef nonnull %7) #12
  %8 = getelementptr inbounds nuw i8, ptr %0, i64 88
  %9 = load i32, ptr %8, align 8, !tbaa !80
  %.not11 = icmp eq i32 %9, 0
  %10 = getelementptr inbounds nuw i8, ptr %0, i64 256
  %11 = load i32, ptr %10, align 8, !tbaa !81
  br i1 %.not11, label %17, label %12

12:                                               ; preds = %4
  %13 = getelementptr inbounds nuw i8, ptr %0, i64 248
  %14 = load i64, ptr %13, align 8, !tbaa !82
  %15 = getelementptr inbounds nuw i8, ptr %0, i64 260
  %16 = load i32, ptr %15, align 4, !tbaa !83
  tail call void (ptr, i32, ptr, ...) @av_log(ptr noundef nonnull %0, i32 noundef 40, ptr noundef nonnull @.str.15, i64 noundef %14, i32 noundef %11, i32 noundef %16) #12
  br label %20

17:                                               ; preds = %4
  %18 = getelementptr inbounds nuw i8, ptr %0, i64 240
  %19 = load i64, ptr %18, align 8, !tbaa !84
  tail call void (ptr, i32, ptr, ...) @av_log(ptr noundef nonnull %0, i32 noundef 40, ptr noundef nonnull @.str.16, i64 noundef %19, i32 noundef %11) #12
  br label %20

20:                                               ; preds = %17, %12
  tail call void @av_opt_free(ptr noundef nonnull %0) #12
  %21 = getelementptr inbounds nuw i8, ptr %0, i64 84
  %22 = load i32, ptr %21, align 4, !tbaa !85
  call void @avio_context_free(ptr noundef nonnull %3) #12
  call void @llvm.lifetime.start.p0(i64 8, ptr nonnull %2)
  store ptr %6, ptr %2, align 8, !tbaa !41
  %23 = call i32 @ffurl_closep(ptr noundef nonnull %2)
  call void @llvm.lifetime.end.p0(i64 8, ptr nonnull %2)
  %24 = icmp slt i32 %23, 0
  %. = select i1 %24, i32 %23, i32 %22
  br label %25

25:                                               ; preds = %20, %1
  %.0 = phi i32 [ 0, %1 ], [ %., %20 ]
  ret i32 %.0
}